(dp1
S'failed'
p2
(lp3
sS'source_names'
p4
(lp5
S'.'
asS'ids'
p6
(dp7
I1
(S'/home/svoboond/.qgis2/python/plugins/NOFAInsert-master/test/test_mtdt.py'
S'test.test_mtdt'
p8
S'TestMtdt.test_mtdt'
tp9
sI2
(S'/home/svoboond/.qgis2/python/plugins/NOFAInsert-master/test/test_qgis.py'
S'test.test_qgis'
p10
S'TestQGIS.test_projection'
tp11
sI3
(S'/home/svoboond/.qgis2/python/plugins/NOFAInsert-master/test/test_qgis.py'
g10
S'TestQGIS.test_providers'
tp12
sI4
(S'/home/svoboond/.qgis2/python/plugins/NOFAInsert-master/test/test_qgis_app.py'
S'test.test_qgis_app'
p13
S'TestGui.test_occ_tbl_row_cnt'
tp14
sI5
(S'/home/svoboond/.qgis2/python/plugins/NOFAInsert-master/test/test_qgis_app.py'
g13
S'TestGuiInit.test_gui_init'
tp15
sI6
(S'/home/svoboond/.qgis2/python/plugins/NOFAInsert-master/test/test_resources.py'
S'test.test_resources'
p16
S'NOFAInsertDialogTest.test_icon_png'
tp17
ss.